; Function Attrs: mustprogress nofree norecurse nosync nounwind willreturn memory(read, inaccessiblemem: none) uwtable
define hidden noundef ptr @_ZNK15ConnectionGraph18unique_java_objectEP4Node(ptr nocapture noundef nonnull readonly align 8 dereferenceable(232) %0, ptr nocapture noundef readonly %1) local_unnamed_addr #5 align 2 {
  %3 = getelementptr inbounds i8, ptr %1, i64 40
  %4 = load i32, ptr %3, align 8
  %5 = load i32, ptr %0, align 8
  %.not = icmp ult i32 %4, %5
  br i1 %.not, label %6, label %.loopexit

6:                                                ; preds = %2
  %7 = getelementptr inbounds i8, ptr %0, i64 8
  %8 = load ptr, ptr %7, align 8
  %9 = sext i32 %4 to i64
  %10 = getelementptr inbounds ptr, ptr %8, i64 %9
  %11 = load ptr, ptr %10, align 8
  %12 = icmp eq ptr %11, null
  br i1 %12, label %.loopexit, label %13

13:                                               ; preds = %6
  %14 = getelementptr inbounds i8, ptr %11, i64 48
  %15 = load i8, ptr %14, align 8
  %16 = icmp eq i8 %15, 1
  br i1 %16, label %.loopexit, label %17

17:                                               ; preds = %13
  %18 = load i32, ptr %11, align 4
  %19 = icmp sgt i32 %18, 0
  br i1 %19, label %.lr.ph, label %.loopexit

.lr.ph:                                           ; preds = %17
  %20 = getelementptr inbounds i8, ptr %11, i64 8
  %21 = load ptr, ptr %20, align 8
  %wide.trip.count = zext nneg i32 %18 to i64
  br label %22

22:                                               ; preds = %.lr.ph, %31
  %indvars.iv = phi i64 [ 0, %.lr.ph ], [ %indvars.iv.next, %31 ]
  %.01421 = phi ptr [ null, %.lr.ph ], [ %.1, %31 ]
  %23 = getelementptr inbounds ptr, ptr %21, i64 %indvars.iv
  %24 = load ptr, ptr %23, align 8
  %25 = getelementptr inbounds i8, ptr %24, i64 48
  %26 = load i8, ptr %25, align 8
  %27 = icmp eq i8 %26, 1
  br i1 %27, label %28, label %31

28:                                               ; preds = %22
  %29 = icmp eq ptr %.01421, null
  br i1 %29, label %31, label %30

30:                                               ; preds = %28
  %.not17 = icmp eq ptr %.01421, %24
  br i1 %.not17, label %31, label %.loopexit

31:                                               ; preds = %28, %22, %30
  %.1 = phi ptr [ %.01421, %30 ], [ %.01421, %22 ], [ %24, %28 ]
  %indvars.iv.next = add nuw nsw i64 %indvars.iv, 1
  %exitcond.not = icmp eq i64 %indvars.iv.next, %wide.trip.count
  br i1 %exitcond.not, label %.loopexit, label %22, !llvm.loop !57

.loopexit:                                        ; preds = %30, %31, %17, %13, %6, %2
  %.0 = phi ptr [ null, %2 ], [ null, %6 ], [ %11, %13 ], [ null, %17 ], [ null, %30 ], [ %.1, %31 ]
  ret ptr %.0
}